target datalayout = "e-m:e-p270:32:32-p271:32:32-p272:64:64-i64:64-i128:128-f80:128-n8:16:32:64-S128"
target triple = "x86_64-pc-linux-gnu"

%struct.HASHCTL = type { i64, i64, i64, i64, i64, i64, ptr, ptr, ptr, ptr, ptr, ptr }

@CacheMemoryContext = external global ptr, align 8
@RelationIdCache = internal global ptr null, align 8
@in_progress_list = internal global ptr null, align 8
@.str.14 = private unnamed_addr constant [16 x i8] c"Relcache by OID\00", align 1
@in_progress_list_maxlen = internal global i32 0, align 4

; Function Attrs: nounwind uwtable
define dso_local void @RelationCacheInitialize() #0 {
  %1 = alloca %struct.HASHCTL, align 8
  %2 = alloca i32, align 4
  call void @llvm.lifetime.start.p0(i64 96, ptr %1) #11
  call void @llvm.lifetime.start.p0(i64 4, ptr %2) #11
  %3 = load ptr, ptr @CacheMemoryContext, align 8
  %4 = icmp ne ptr %3, null
  br i1 %4, label %6, label %5

5:                                                ; preds = %0
  call void @CreateCacheMemoryContext()
  br label %6

6:                                                ; preds = %5, %0
  %7 = getelementptr inbounds nuw %struct.HASHCTL, ptr %1, i32 0, i32 4
  store i64 4, ptr %7, align 8
  %8 = getelementptr inbounds nuw %struct.HASHCTL, ptr %1, i32 0, i32 5
  store i64 16, ptr %8, align 8
  %9 = call ptr @hash_create(ptr noundef @.str.14, i64 noundef 400, ptr noundef %1, i32 noundef 40)
  store ptr %9, ptr @RelationIdCache, align 8
  store i32 4, ptr %2, align 4
  %10 = load ptr, ptr @CacheMemoryContext, align 8
  %11 = load i32, ptr %2, align 4
  %12 = sext i32 %11 to i64
  %13 = mul i64 %12, 8
  %14 = call ptr @MemoryContextAlloc(ptr noundef %10, i64 noundef %13)
  store ptr %14, ptr @in_progress_list, align 8
  %15 = load i32, ptr %2, align 4
  store i32 %15, ptr @in_progress_list_maxlen, align 4
  call void @RelationMapInitialize()
  call void @llvm.lifetime.end.p0(i64 4, ptr %2) #11
  call void @llvm.lifetime.end.p0(i64 96, ptr %1) #11
  ret void
}