; Function Attrs: nounwind uwtable
define dso_local void @RelationCacheInitialize() local_unnamed_addr #0 {
  %1 = alloca %struct.HASHCTL, align 8
  call void @llvm.lifetime.start.p0(i64 96, ptr nonnull %1) #13
  %2 = load ptr, ptr @CacheMemoryContext, align 8
  %.not = icmp eq ptr %2, null
  br i1 %.not, label %3, label %4

3:                                                ; preds = %0
  tail call void @CreateCacheMemoryContext() #13
  br label %4

4:                                                ; preds = %3, %0
  %5 = getelementptr inbounds nuw i8, ptr %1, i64 32
  store i64 4, ptr %5, align 8
  %6 = getelementptr inbounds nuw i8, ptr %1, i64 40
  store i64 16, ptr %6, align 8
  %7 = call ptr @hash_create(ptr noundef nonnull @.str.14, i64 noundef 400, ptr noundef nonnull %1, i32 noundef 40) #13
  store ptr %7, ptr @RelationIdCache, align 8
  %8 = load ptr, ptr @CacheMemoryContext, align 8
  %9 = call ptr @MemoryContextAlloc(ptr noundef %8, i64 noundef 32) #13
  store ptr %9, ptr @in_progress_list, align 8
  store i32 4, ptr @in_progress_list_maxlen, align 4
  call void @RelationMapInitialize() #13
  call void @llvm.lifetime.end.p0(i64 96, ptr nonnull %1) #13
  ret void
}